target datalayout = "e-m:e-p270:32:32-p271:32:32-p272:64:64-i64:64-i128:128-f80:128-n8:16:32:64-S128"
target triple = "x86_64-pc-linux-gnu"

%struct.Gem_Man_t_ = type { i32, i32, i32, i32, ptr, ptr, ptr, i32 }
%struct.Gem_Obj_t_ = type { i32, i32 }
%struct.Vec_Mem_t_ = type { i32, i32, i32, i32, i32, i32, ptr, ptr, ptr }

@stdout = external global ptr, align 8
@.str.8 = private unnamed_addr constant [39 x i8] c"Found symmetric %d-variable function: \00", align 1
@.str.9 = private unnamed_addr constant [4 x i8] c"   \00", align 1
@.str.10 = private unnamed_addr constant [22 x i8] c"This is majority-%d.\0A\00", align 1
@.str.11 = private unnamed_addr constant [2 x i8] c"\0A\00", align 1

; Function Attrs: inlinehint nounwind uwtable
define internal i32 @Abc_TtGetBit(ptr noundef %0, i32 noundef %1) #4 {
  %3 = alloca ptr, align 8
  %4 = alloca i32, align 4
  store ptr %0, ptr %3, align 8, !tbaa !29
  store i32 %1, ptr %4, align 4, !tbaa !8
  %5 = load ptr, ptr %3, align 8, !tbaa !29
  %6 = load i32, ptr %4, align 4, !tbaa !8
  %7 = ashr i32 %6, 6
  %8 = sext i32 %7 to i64
  %9 = getelementptr inbounds i64, ptr %5, i64 %8
  %10 = load i64, ptr %9, align 8, !tbaa !33
  %11 = load i32, ptr %4, align 4, !tbaa !8
  %12 = and i32 %11, 63
  %13 = zext i32 %12 to i64
  %14 = lshr i64 %10, %13
  %15 = trunc i64 %14 to i32
  %16 = and i32 %15, 1
  ret i32 %16
}

; Function Attrs: inlinehint nounwind uwtable
define internal i64 @Abc_Tt6Mask(i32 noundef %0) #4 {
  %2 = alloca i32, align 4
  store i32 %0, ptr %2, align 4, !tbaa !8
  %3 = load i32, ptr %2, align 4, !tbaa !8
  %4 = sub nsw i32 64, %3
  %5 = zext i32 %4 to i64
  %6 = lshr i64 -1, %5
  ret i64 %6
}

; Function Attrs: inlinehint nounwind uwtable
define internal i32 @Abc_TtIsFullySymmetric(ptr noundef %0, i32 noundef %1) #4 {
  %3 = alloca i32, align 4
  %4 = alloca ptr, align 8
  %5 = alloca i32, align 4
  %6 = alloca i32, align 4
  %7 = alloca i32, align 4
  %8 = alloca i32, align 4
  %9 = alloca i32, align 4
  %10 = alloca i32, align 4
  %11 = alloca i32, align 4
  %12 = alloca i32, align 4
  store ptr %0, ptr %4, align 8, !tbaa !29
  store i32 %1, ptr %5, align 4, !tbaa !8
  call void @llvm.lifetime.start.p0(i64 4, ptr %6) #13
  call void @llvm.lifetime.start.p0(i64 4, ptr %7) #13
  call void @llvm.lifetime.start.p0(i64 4, ptr %8) #13
  store i32 0, ptr %8, align 4, !tbaa !8
  call void @llvm.lifetime.start.p0(i64 4, ptr %9) #13
  store i32 0, ptr %9, align 4, !tbaa !8
  store i32 0, ptr %6, align 4, !tbaa !8
  br label %13

13:                                               ; preds = %68, %2
  %14 = load i32, ptr %6, align 4, !tbaa !8
  %15 = load i32, ptr %5, align 4, !tbaa !8
  %16 = shl i32 1, %15
  %17 = icmp slt i32 %14, %16
  br i1 %17, label %18, label %71

18:                                               ; preds = %13
  call void @llvm.lifetime.start.p0(i64 4, ptr %10) #13
  store i32 0, ptr %10, align 4, !tbaa !8
  call void @llvm.lifetime.start.p0(i64 4, ptr %11) #13
  %19 = load ptr, ptr %4, align 8, !tbaa !29
  %20 = load i32, ptr %6, align 4, !tbaa !8
  %21 = call i32 @Abc_TtGetBit(ptr noundef %19, i32 noundef %20)
  store i32 %21, ptr %11, align 4, !tbaa !8
  store i32 0, ptr %7, align 4, !tbaa !8
  br label %22

22:                                               ; preds = %33, %18
  %23 = load i32, ptr %7, align 4, !tbaa !8
  %24 = load i32, ptr %5, align 4, !tbaa !8
  %25 = icmp slt i32 %23, %24
  br i1 %25, label %26, label %36

26:                                               ; preds = %22
  %27 = load i32, ptr %6, align 4, !tbaa !8
  %28 = load i32, ptr %7, align 4, !tbaa !8
  %29 = ashr i32 %27, %28
  %30 = and i32 %29, 1
  %31 = load i32, ptr %10, align 4, !tbaa !8
  %32 = add nsw i32 %31, %30
  store i32 %32, ptr %10, align 4, !tbaa !8
  br label %33

33:                                               ; preds = %26
  %34 = load i32, ptr %7, align 4, !tbaa !8
  %35 = add nsw i32 %34, 1
  store i32 %35, ptr %7, align 4, !tbaa !8
  br label %22, !llvm.loop !73

36:                                               ; preds = %22
  %37 = load i32, ptr %9, align 4, !tbaa !8
  %38 = load i32, ptr %10, align 4, !tbaa !8
  %39 = ashr i32 %37, %38
  %40 = and i32 %39, 1
  %41 = icmp ne i32 %40, 0
  br i1 %41, label %42, label %51

42:                                               ; preds = %36
  %43 = load i32, ptr %11, align 4, !tbaa !8
  %44 = load i32, ptr %8, align 4, !tbaa !8
  %45 = load i32, ptr %10, align 4, !tbaa !8
  %46 = ashr i32 %44, %45
  %47 = and i32 %46, 1
  %48 = icmp ne i32 %43, %47
  br i1 %48, label %49, label %50

49:                                               ; preds = %42
  store i32 -1, ptr %3, align 4
  store i32 1, ptr %12, align 4
  br label %65

50:                                               ; preds = %42
  br label %64

51:                                               ; preds = %36
  %52 = load i32, ptr %10, align 4, !tbaa !8
  %53 = shl i32 1, %52
  %54 = load i32, ptr %9, align 4, !tbaa !8
  %55 = or i32 %54, %53
  store i32 %55, ptr %9, align 4, !tbaa !8
  %56 = load i32, ptr %11, align 4, !tbaa !8
  %57 = icmp ne i32 %56, 0
  br i1 %57, label %58, label %63

58:                                               ; preds = %51
  %59 = load i32, ptr %10, align 4, !tbaa !8
  %60 = shl i32 1, %59
  %61 = load i32, ptr %8, align 4, !tbaa !8
  %62 = or i32 %61, %60
  store i32 %62, ptr %8, align 4, !tbaa !8
  br label %63

63:                                               ; preds = %58, %51
  br label %64

64:                                               ; preds = %63, %50
  store i32 0, ptr %12, align 4
  br label %65

65:                                               ; preds = %64, %49
  call void @llvm.lifetime.end.p0(i64 4, ptr %11) #13
  call void @llvm.lifetime.end.p0(i64 4, ptr %10) #13
  %66 = load i32, ptr %12, align 4
  switch i32 %66, label %73 [
    i32 0, label %67
  ]

67:                                               ; preds = %65
  br label %68

68:                                               ; preds = %67
  %69 = load i32, ptr %6, align 4, !tbaa !8
  %70 = add nsw i32 %69, 1
  store i32 %70, ptr %6, align 4, !tbaa !8
  br label %13, !llvm.loop !74

71:                                               ; preds = %13
  %72 = load i32, ptr %8, align 4, !tbaa !8
  store i32 %72, ptr %3, align 4
  store i32 1, ptr %12, align 4
  br label %73

73:                                               ; preds = %71, %65
  call void @llvm.lifetime.end.p0(i64 4, ptr %9) #13
  call void @llvm.lifetime.end.p0(i64 4, ptr %8) #13
  call void @llvm.lifetime.end.p0(i64 4, ptr %7) #13
  call void @llvm.lifetime.end.p0(i64 4, ptr %6) #13
  %74 = load i32, ptr %3, align 4
  ret i32 %74
}

; Function Attrs: inlinehint nounwind uwtable
define internal ptr @Vec_MemReadEntry(ptr noundef %0, i32 noundef %1) #4 {
  %3 = alloca ptr, align 8
  %4 = alloca i32, align 4
  store ptr %0, ptr %3, align 8, !tbaa !31
  store i32 %1, ptr %4, align 4, !tbaa !8
  %5 = load ptr, ptr %3, align 8, !tbaa !31
  %6 = getelementptr inbounds nuw %struct.Vec_Mem_t_, ptr %5, i32 0, i32 6
  %7 = load ptr, ptr %6, align 8, !tbaa !42
  %8 = load i32, ptr %4, align 4, !tbaa !8
  %9 = load ptr, ptr %3, align 8, !tbaa !31
  %10 = getelementptr inbounds nuw %struct.Vec_Mem_t_, ptr %9, i32 0, i32 2
  %11 = load i32, ptr %10, align 8, !tbaa !57
  %12 = ashr i32 %8, %11
  %13 = sext i32 %12 to i64
  %14 = getelementptr inbounds ptr, ptr %7, i64 %13
  %15 = load ptr, ptr %14, align 8, !tbaa !29
  %16 = load ptr, ptr %3, align 8, !tbaa !31
  %17 = getelementptr inbounds nuw %struct.Vec_Mem_t_, ptr %16, i32 0, i32 0
  %18 = load i32, ptr %17, align 8, !tbaa !58
  %19 = load i32, ptr %4, align 4, !tbaa !8
  %20 = load ptr, ptr %3, align 8, !tbaa !31
  %21 = getelementptr inbounds nuw %struct.Vec_Mem_t_, ptr %20, i32 0, i32 3
  %22 = load i32, ptr %21, align 4, !tbaa !59
  %23 = and i32 %19, %22
  %24 = mul nsw i32 %18, %23
  %25 = sext i32 %24 to i64
  %26 = getelementptr inbounds i64, ptr %15, i64 %25
  ret ptr %26
}

; Function Attrs: nounwind uwtable
define i32 @Gem_FuncCheckMajority(ptr noundef %0, i32 noundef %1) #0 {
  %3 = alloca i32, align 4
  %4 = alloca ptr, align 8
  %5 = alloca i32, align 4
  %6 = alloca ptr, align 8
  %7 = alloca ptr, align 8
  %8 = alloca i32, align 4
  %9 = alloca i32, align 4
  %10 = alloca i32, align 4
  %11 = alloca i32, align 4
  store ptr %0, ptr %4, align 8, !tbaa !3
  store i32 %1, ptr %5, align 4, !tbaa !8
  call void @llvm.lifetime.start.p0(i64 8, ptr %6) #13
  %12 = load ptr, ptr %4, align 8, !tbaa !3
  %13 = getelementptr inbounds nuw %struct.Gem_Man_t_, ptr %12, i32 0, i32 4
  %14 = load ptr, ptr %13, align 8, !tbaa !12
  %15 = load i32, ptr %5, align 4, !tbaa !8
  %16 = sext i32 %15 to i64
  %17 = getelementptr inbounds %struct.Gem_Obj_t_, ptr %14, i64 %16
  store ptr %17, ptr %6, align 8, !tbaa !17
  call void @llvm.lifetime.start.p0(i64 8, ptr %7) #13
  %18 = load ptr, ptr %4, align 8, !tbaa !3
  %19 = getelementptr inbounds nuw %struct.Gem_Man_t_, ptr %18, i32 0, i32 5
  %20 = load ptr, ptr %19, align 8, !tbaa !27
  %21 = load i32, ptr %5, align 4, !tbaa !8
  %22 = call ptr @Vec_MemReadEntry(ptr noundef %20, i32 noundef %21)
  store ptr %22, ptr %7, align 8, !tbaa !29
  call void @llvm.lifetime.start.p0(i64 4, ptr %8) #13
  %23 = load ptr, ptr %7, align 8, !tbaa !29
  %24 = load ptr, ptr %6, align 8, !tbaa !17
  %25 = load i32, ptr %24, align 4
  %26 = and i32 %25, 15
  %27 = call i32 @Abc_TtIsFullySymmetric(ptr noundef %23, i32 noundef %26)
  store i32 %27, ptr %8, align 4, !tbaa !8
  %28 = load i32, ptr %8, align 4, !tbaa !8
  %29 = icmp ne i32 %28, -1
  br i1 %29, label %30, label %70

30:                                               ; preds = %2
  call void @llvm.lifetime.start.p0(i64 4, ptr %9) #13
  %31 = load ptr, ptr %6, align 8, !tbaa !17
  %32 = load i32, ptr %31, align 4
  %33 = and i32 %32, 15
  %34 = add nsw i32 %33, 1
  %35 = ashr i32 %34, 1
  store i32 %35, ptr %9, align 4, !tbaa !8
  call void @llvm.lifetime.start.p0(i64 4, ptr %10) #13
  %36 = load i32, ptr %9, align 4, !tbaa !8
  %37 = call i64 @Abc_Tt6Mask(i32 noundef %36)
  %38 = trunc i64 %37 to i32
  store i32 %38, ptr %10, align 4, !tbaa !8
  %39 = load ptr, ptr %6, align 8, !tbaa !17
  %40 = load i32, ptr %39, align 4
  %41 = and i32 %40, 15
  %42 = call i32 (ptr, ...) @printf(ptr noundef @.str.8, i32 noundef %41)
  %43 = load ptr, ptr @stdout, align 8, !tbaa !21
  %44 = load ptr, ptr %6, align 8, !tbaa !17
  %45 = load i32, ptr %44, align 4
  %46 = and i32 %45, 15
  %47 = add nsw i32 %46, 1
  call void @Extra_PrintBinary2(ptr noundef %43, ptr noundef %8, i32 noundef %47)
  %48 = call i32 (ptr, ...) @printf(ptr noundef @.str.9)
  %49 = load ptr, ptr %6, align 8, !tbaa !17
  %50 = load i32, ptr %49, align 4
  %51 = and i32 %50, 15
  %52 = and i32 %51, 1
  %53 = icmp ne i32 %52, 0
  br i1 %53, label %54, label %65

54:                                               ; preds = %30
  %55 = load i32, ptr %8, align 4, !tbaa !8
  %56 = load i32, ptr %10, align 4, !tbaa !8
  %57 = load i32, ptr %9, align 4, !tbaa !8
  %58 = shl i32 %56, %57
  %59 = icmp eq i32 %55, %58
  br i1 %59, label %60, label %65

60:                                               ; preds = %54
  %61 = load ptr, ptr %6, align 8, !tbaa !17
  %62 = load i32, ptr %61, align 4
  %63 = and i32 %62, 15
  %64 = call i32 (ptr, ...) @printf(ptr noundef @.str.10, i32 noundef %63)
  store i32 0, ptr %3, align 4
  store i32 1, ptr %11, align 4
  br label %67

65:                                               ; preds = %54, %30
  %66 = call i32 (ptr, ...) @printf(ptr noundef @.str.11)
  store i32 0, ptr %11, align 4
  br label %67

67:                                               ; preds = %65, %60
  call void @llvm.lifetime.end.p0(i64 4, ptr %10) #13
  call void @llvm.lifetime.end.p0(i64 4, ptr %9) #13
  %68 = load i32, ptr %11, align 4
  switch i32 %68, label %71 [
    i32 0, label %69
  ]

69:                                               ; preds = %67
  br label %70

70:                                               ; preds = %69, %2
  store i32 0, ptr %3, align 4
  store i32 1, ptr %11, align 4
  br label %71

71:                                               ; preds = %70, %67
  call void @llvm.lifetime.end.p0(i64 4, ptr %8) #13
  call void @llvm.lifetime.end.p0(i64 8, ptr %7) #13
  call void @llvm.lifetime.end.p0(i64 8, ptr %6) #13
  %72 = load i32, ptr %3, align 4
  ret i32 %72
}