; Function Attrs: nounwind uwtable
define noundef i32 @Gem_FuncCheckMajority(ptr noundef readonly captures(none) %0, i32 noundef %1) local_unnamed_addr #0 {
  %3 = alloca i32, align 4
  %4 = getelementptr inbounds nuw i8, ptr %0, i64 16
  %5 = load ptr, ptr %4, align 8, !tbaa !3
  %6 = sext i32 %1 to i64
  %7 = getelementptr inbounds %struct.Gem_Obj_t_, ptr %5, i64 %6
  %8 = getelementptr inbounds nuw i8, ptr %0, i64 24
  %9 = load ptr, ptr %8, align 8, !tbaa !38
  %10 = getelementptr inbounds nuw i8, ptr %9, i64 24
  %11 = load ptr, ptr %10, align 8, !tbaa !48
  %12 = getelementptr inbounds nuw i8, ptr %9, i64 8
  %13 = load i32, ptr %12, align 8, !tbaa !25
  %14 = ashr i32 %1, %13
  %15 = sext i32 %14 to i64
  %16 = getelementptr inbounds ptr, ptr %11, i64 %15
  %17 = load ptr, ptr %16, align 8, !tbaa !45
  %18 = load i32, ptr %9, align 8, !tbaa !22
  %19 = getelementptr inbounds nuw i8, ptr %9, i64 12
  %20 = load i32, ptr %19, align 4, !tbaa !26
  %21 = and i32 %20, %1
  %22 = mul nsw i32 %21, %18
  %23 = sext i32 %22 to i64
  %24 = getelementptr inbounds i64, ptr %17, i64 %23
  call void @llvm.lifetime.start.p0(i64 4, ptr nonnull %3) #22
  %25 = load i32, ptr %7, align 4
  %26 = and i32 %25, 15
  %.not48.i = icmp eq i32 %26, 0
  br i1 %.not48.i, label %Abc_TtIsFullySymmetric.exit.thread19, label %.lr.ph.us.i

.lr.ph.us.i:                                      ; preds = %2, %39
  %.02545.us.i = phi i32 [ %.12640.us.i, %39 ], [ 0, %2 ]
  %.02844.us.i = phi i32 [ %.12939.us.i, %39 ], [ 0, %2 ]
  %.03243.us.i = phi i32 [ %40, %39 ], [ 0, %2 ]
  %27 = lshr i32 %.03243.us.i, 6
  %28 = zext nneg i32 %27 to i64
  %29 = getelementptr inbounds nuw i64, ptr %24, i64 %28
  %30 = load i64, ptr %29, align 8, !tbaa !40
  %31 = and i32 %.03243.us.i, 63
  %32 = zext nneg i32 %31 to i64
  %33 = lshr i64 %30, %32
  br label %42

34:                                               ; preds = %._crit_edge.us.i
  %35 = lshr i32 %.02844.us.i, %45
  %36 = and i32 %35, 1
  %.not34.us.i = icmp eq i32 %48, %36
  br i1 %.not34.us.i, label %39, label %Abc_TtIsFullySymmetric.exit.thread

.thread.us.i:                                     ; preds = %._crit_edge.us.i
  %37 = or i32 %49, %.02545.us.i
  %.not33.us.i = icmp eq i32 %48, 0
  %38 = select i1 %.not33.us.i, i32 0, i32 %49
  %spec.select.us.i = or i32 %38, %.02844.us.i
  br label %39

39:                                               ; preds = %.thread.us.i, %34
  %.12640.us.i = phi i32 [ %37, %.thread.us.i ], [ %.02545.us.i, %34 ]
  %.12939.us.i = phi i32 [ %spec.select.us.i, %.thread.us.i ], [ %.02844.us.i, %34 ]
  %40 = add nuw nsw i32 %.03243.us.i, 1
  %.032.highbits.us.i = lshr i32 %40, %26
  %41 = icmp eq i32 %.032.highbits.us.i, 0
  br i1 %41, label %.lr.ph.us.i, label %Abc_TtIsFullySymmetric.exit, !llvm.loop !83

42:                                               ; preds = %42, %.lr.ph.us.i
  %.02442.us.i = phi i32 [ 0, %.lr.ph.us.i ], [ %45, %42 ]
  %.03141.us.i = phi i32 [ 0, %.lr.ph.us.i ], [ %46, %42 ]
  %43 = lshr i32 %.03243.us.i, %.03141.us.i
  %44 = and i32 %43, 1
  %45 = add nuw nsw i32 %44, %.02442.us.i
  %46 = add nuw nsw i32 %.03141.us.i, 1
  %exitcond.not.i = icmp eq i32 %46, %26
  br i1 %exitcond.not.i, label %._crit_edge.us.i, label %42, !llvm.loop !84

._crit_edge.us.i:                                 ; preds = %42
  %47 = trunc i64 %33 to i32
  %48 = and i32 %47, 1
  %49 = shl nuw i32 1, %45
  %50 = and i32 %49, %.02545.us.i
  %.not.us.i = icmp eq i32 %50, 0
  br i1 %.not.us.i, label %.thread.us.i, label %34

Abc_TtIsFullySymmetric.exit.thread19:             ; preds = %2
  %51 = load i64, ptr %24, align 8, !tbaa !40
  %52 = trunc i64 %51 to i32
  %53 = and i32 %52, 1
  store i32 %53, ptr %3, align 4, !tbaa !12
  br label %54

Abc_TtIsFullySymmetric.exit:                      ; preds = %39
  store i32 %.12939.us.i, ptr %3, align 4, !tbaa !12
  %.not = icmp eq i32 %.12939.us.i, -1
  br i1 %.not, label %Abc_TtIsFullySymmetric.exit.thread, label %54

54:                                               ; preds = %Abc_TtIsFullySymmetric.exit.thread19, %Abc_TtIsFullySymmetric.exit
  %55 = tail call i32 (ptr, ...) @printf(ptr noundef nonnull dereferenceable(1) @.str.8, i32 noundef %26)
  %56 = load ptr, ptr @stdout, align 8, !tbaa !16
  %57 = load i32, ptr %7, align 4
  %58 = and i32 %57, 15
  %59 = add nuw nsw i32 %58, 1
  call void @Extra_PrintBinary2(ptr noundef %56, ptr noundef nonnull %3, i32 noundef %59) #22
  %60 = call i32 (ptr, ...) @printf(ptr noundef nonnull dereferenceable(1) @.str.9)
  %61 = load i32, ptr %7, align 4
  %62 = and i32 %61, 15
  %63 = and i32 %61, 1
  %.not16 = icmp eq i32 %63, 0
  br i1 %.not16, label %75, label %64

64:                                               ; preds = %54
  %65 = add nuw nsw i32 %26, 1
  %66 = lshr i32 %65, 1
  %67 = sub nuw nsw i32 64, %66
  %68 = zext nneg i32 %67 to i64
  %69 = lshr i64 -1, %68
  %70 = trunc nuw nsw i64 %69 to i32
  %71 = load i32, ptr %3, align 4, !tbaa !12
  %72 = shl nuw nsw i32 %70, %66
  %73 = icmp eq i32 %71, %72
  br i1 %73, label %.critedge, label %75

.critedge:                                        ; preds = %64
  %74 = call i32 (ptr, ...) @printf(ptr noundef nonnull dereferenceable(1) @.str.10, i32 noundef %62)
  br label %Abc_TtIsFullySymmetric.exit.thread

75:                                               ; preds = %64, %54
  %putchar = call i32 @putchar(i32 10)
  br label %Abc_TtIsFullySymmetric.exit.thread

Abc_TtIsFullySymmetric.exit.thread:               ; preds = %34, %Abc_TtIsFullySymmetric.exit, %75, %.critedge
  call void @llvm.lifetime.end.p0(i64 4, ptr nonnull %3) #22
  ret i32 0
}